target datalayout = "e-m:e-p270:32:32-p271:32:32-p272:64:64-i64:64-i128:128-f80:128-n8:16:32:64-S128"
target triple = "x86_64-pc-linux-gnu"

%struct._smpp_tap_rec_t = type { i32, i32 }

@.str.973 = private unnamed_addr constant [16 x i8] c"SMPP Operations\00", align 1
@.str.974 = private unnamed_addr constant [15 x i8] c"SMPP Responses\00", align 1
@st_smpp_ops = internal global i32 -1, align 4
@.str.975 = private unnamed_addr constant [15 x i8] c"Unknown 0x%08x\00", align 1
@st_smpp_res = internal global i32 -1, align 4
@.str.976 = private unnamed_addr constant [21 x i8] c"SMPP Response Status\00", align 1
@st_smpp_res_status = internal global i32 -1, align 4
@.str.977 = private unnamed_addr constant [14 x i8] c"SMPP Requests\00", align 1
@st_smpp_req = internal global i32 -1, align 4

; Function Attrs: null_pointer_is_valid sspstrong uwtable
define internal i32 @smpp_stats_tree_per_packet(ptr noundef %0, ptr noundef %1, ptr noundef %2, ptr noundef %3, i32 noundef %4) #0 {
  %6 = alloca ptr, align 8
  %7 = alloca ptr, align 8
  %8 = alloca ptr, align 8
  %9 = alloca ptr, align 8
  %10 = alloca i32, align 4
  %11 = alloca ptr, align 8
  store ptr %0, ptr %6, align 8
  store ptr %1, ptr %7, align 8
  store ptr %2, ptr %8, align 8
  store ptr %3, ptr %9, align 8
  store i32 %4, ptr %10, align 4
  call void @llvm.lifetime.start.p0(i64 8, ptr %11) #10
  %12 = load ptr, ptr %9, align 8
  store ptr %12, ptr %11, align 8
  %13 = load ptr, ptr %6, align 8
  %14 = call i32 @stats_tree_manip_node_int(i32 noundef 0, ptr noundef %13, ptr noundef @.str.973, i32 noundef 0, i1 noundef zeroext true, i32 noundef 1)
  %15 = load ptr, ptr %11, align 8
  %16 = getelementptr inbounds nuw %struct._smpp_tap_rec_t, ptr %15, i32 0, i32 0
  %17 = load i32, ptr %16, align 4
  %18 = and i32 %17, -2147483648
  %19 = icmp eq i32 %18, -2147483648
  br i1 %19, label %20, label %40

20:                                               ; preds = %5
  %21 = load ptr, ptr %6, align 8
  %22 = load i32, ptr @st_smpp_ops, align 4
  %23 = call i32 @stats_tree_manip_node_int(i32 noundef 0, ptr noundef %21, ptr noundef @.str.974, i32 noundef %22, i1 noundef zeroext true, i32 noundef 1)
  %24 = load ptr, ptr %6, align 8
  %25 = load ptr, ptr %11, align 8
  %26 = getelementptr inbounds nuw %struct._smpp_tap_rec_t, ptr %25, i32 0, i32 0
  %27 = load i32, ptr %26, align 4
  %28 = call ptr @val_to_str(i32 noundef %27, ptr noundef @vals_command_id, ptr noundef @.str.975)
  %29 = load i32, ptr @st_smpp_res, align 4
  %30 = call i32 @stats_tree_manip_node_int(i32 noundef 0, ptr noundef %24, ptr noundef %28, i32 noundef %29, i1 noundef zeroext false, i32 noundef 1)
  %31 = load ptr, ptr %6, align 8
  %32 = call i32 @stats_tree_manip_node_int(i32 noundef 0, ptr noundef %31, ptr noundef @.str.976, i32 noundef 0, i1 noundef zeroext true, i32 noundef 1)
  %33 = load ptr, ptr %6, align 8
  %34 = load ptr, ptr %11, align 8
  %35 = getelementptr inbounds nuw %struct._smpp_tap_rec_t, ptr %34, i32 0, i32 1
  %36 = load i32, ptr %35, align 4
  %37 = call ptr @rval_to_str(i32 noundef %36, ptr noundef @rvals_command_status, ptr noundef @.str.975)
  %38 = load i32, ptr @st_smpp_res_status, align 4
  %39 = call i32 @stats_tree_manip_node_int(i32 noundef 0, ptr noundef %33, ptr noundef %37, i32 noundef %38, i1 noundef zeroext false, i32 noundef 1)
  br label %51

40:                                               ; preds = %5
  %41 = load ptr, ptr %6, align 8
  %42 = load i32, ptr @st_smpp_ops, align 4
  %43 = call i32 @stats_tree_manip_node_int(i32 noundef 0, ptr noundef %41, ptr noundef @.str.977, i32 noundef %42, i1 noundef zeroext true, i32 noundef 1)
  %44 = load ptr, ptr %6, align 8
  %45 = load ptr, ptr %11, align 8
  %46 = getelementptr inbounds nuw %struct._smpp_tap_rec_t, ptr %45, i32 0, i32 0
  %47 = load i32, ptr %46, align 4
  %48 = call ptr @val_to_str(i32 noundef %47, ptr noundef @vals_command_id, ptr noundef @.str.975)
  %49 = load i32, ptr @st_smpp_req, align 4
  %50 = call i32 @stats_tree_manip_node_int(i32 noundef 0, ptr noundef %44, ptr noundef %48, i32 noundef %49, i1 noundef zeroext false, i32 noundef 1)
  br label %51

51:                                               ; preds = %40, %20
  call void @llvm.lifetime.end.p0(i64 8, ptr %11) #10
  ret i32 1
}