; Function Attrs: null_pointer_is_valid sspstrong uwtable
define internal noundef i32 @smpp_stats_tree_per_packet(ptr noundef %0, ptr readnone captures(none) %1, ptr readnone captures(none) %2, ptr noundef readonly captures(none) %3, i32 %4) #0 {
  %6 = tail call i32 @stats_tree_manip_node_int(i32 noundef 0, ptr noundef %0, ptr noundef nonnull @.str.973, i32 noundef 0, i1 noundef zeroext true, i32 noundef 1)
  %7 = load i32, ptr %3, align 4
  %.not = icmp sgt i32 %7, -1
  %8 = load i32, ptr @st_smpp_ops, align 4
  br i1 %.not, label %19, label %9

9:                                                ; preds = %5
  %10 = tail call i32 @stats_tree_manip_node_int(i32 noundef 0, ptr noundef %0, ptr noundef nonnull @.str.974, i32 noundef %8, i1 noundef zeroext true, i32 noundef 1)
  %11 = load i32, ptr %3, align 4
  %12 = tail call ptr @val_to_str(i32 noundef %11, ptr noundef nonnull @vals_command_id, ptr noundef nonnull @.str.975)
  %13 = load i32, ptr @st_smpp_res, align 4
  %14 = tail call i32 @stats_tree_manip_node_int(i32 noundef 0, ptr noundef %0, ptr noundef %12, i32 noundef %13, i1 noundef zeroext false, i32 noundef 1)
  %15 = tail call i32 @stats_tree_manip_node_int(i32 noundef 0, ptr noundef %0, ptr noundef nonnull @.str.976, i32 noundef 0, i1 noundef zeroext true, i32 noundef 1)
  %16 = getelementptr inbounds nuw i8, ptr %3, i64 4
  %17 = load i32, ptr %16, align 4
  %18 = tail call ptr @rval_to_str(i32 noundef %17, ptr noundef nonnull @rvals_command_status, ptr noundef nonnull @.str.975)
  br label %23

19:                                               ; preds = %5
  %20 = tail call i32 @stats_tree_manip_node_int(i32 noundef 0, ptr noundef %0, ptr noundef nonnull @.str.977, i32 noundef %8, i1 noundef zeroext true, i32 noundef 1)
  %21 = load i32, ptr %3, align 4
  %22 = tail call ptr @val_to_str(i32 noundef %21, ptr noundef nonnull @vals_command_id, ptr noundef nonnull @.str.975)
  br label %23

23:                                               ; preds = %19, %9
  %st_smpp_req.sink = phi ptr [ @st_smpp_req, %19 ], [ @st_smpp_res_status, %9 ]
  %.sink = phi ptr [ %22, %19 ], [ %18, %9 ]
  %24 = load i32, ptr %st_smpp_req.sink, align 4
  %25 = tail call i32 @stats_tree_manip_node_int(i32 noundef 0, ptr noundef %0, ptr noundef %.sink, i32 noundef %24, i1 noundef zeroext false, i32 noundef 1)
  ret i32 1
}